target datalayout = "e-m:e-p270:32:32-p271:32:32-p272:64:64-i64:64-i128:128-f80:128-n8:16:32:64-S128"
target triple = "x86_64-pc-linux-gnu"

%struct.strbuf = type { i64, i64, ptr }
%struct.list_objects_filter_options = type { %struct.strbuf, i32, i8, ptr, i64, i64, i32, i64, i64, ptr }

@.str = private unnamed_addr constant [10 x i8] c"blob:none\00", align 1
@.str.6 = private unnamed_addr constant [30 x i8] c"list-objects-filter-options.c\00", align 1
@.str.8 = private unnamed_addr constant [33 x i8] c"filter_options already populated\00", align 1
@.str.9 = private unnamed_addr constant [12 x i8] c"blob:limit=\00", align 1
@.str.10 = private unnamed_addr constant [6 x i8] c"tree:\00", align 1
@.str.11 = private unnamed_addr constant [24 x i8] c"expected 'tree:<depth>'\00", align 1
@.str.12 = private unnamed_addr constant [12 x i8] c"sparse:oid=\00", align 1
@.str.13 = private unnamed_addr constant [13 x i8] c"sparse:path=\00", align 1
@.str.14 = private unnamed_addr constant [45 x i8] c"sparse:path filters support has been dropped\00", align 1
@.str.15 = private unnamed_addr constant [13 x i8] c"object:type=\00", align 1
@.str.16 = private unnamed_addr constant [57 x i8] c"'%s' for 'object:type=<type>' is not a valid object type\00", align 1
@.str.17 = private unnamed_addr constant [9 x i8] c"combine:\00", align 1
@.str.18 = private unnamed_addr constant [25 x i8] c"invalid filter-spec '%s'\00", align 1
@.str.29 = private unnamed_addr constant [1 x i8] zeroinitializer, align 1
@git_gettext_enabled = external global i32, align 4

; Function Attrs: nounwind uwtable
define dso_local void @list_objects_filter_init(ptr noundef %0) #0 {
  %2 = alloca ptr, align 8
  %3 = alloca %struct.list_objects_filter_options, align 8
  store ptr %0, ptr %2, align 8, !tbaa !8
  call void @llvm.lifetime.start.p0(i64 88, ptr %3) #10
  call void @llvm.memcpy.p0.p0.i64(ptr align 8 %3, ptr align 8 @__const.list_objects_filter_init.blank, i64 88, i1 false)
  %4 = load ptr, ptr %2, align 8, !tbaa !8
  call void @llvm.memcpy.p0.p0.i64(ptr align 8 %4, ptr align 8 %3, i64 88, i1 false)
  call void @llvm.lifetime.end.p0(i64 88, ptr %3) #10
  ret void
}

; Function Attrs: inlinehint nounwind uwtable
define internal void @strbuf_addstr(ptr noundef %0, ptr noundef %1) #4 {
  %3 = alloca ptr, align 8
  %4 = alloca ptr, align 8
  store ptr %0, ptr %3, align 8, !tbaa !13
  store ptr %1, ptr %4, align 8, !tbaa !11
  %5 = load ptr, ptr %3, align 8, !tbaa !13
  %6 = load ptr, ptr %4, align 8, !tbaa !11
  %7 = load ptr, ptr %4, align 8, !tbaa !11
  %8 = call i64 @strlen(ptr noundef %7) #11
  call void @strbuf_add(ptr noundef %5, ptr noundef %6, i64 noundef %8)
  ret void
}

; Function Attrs: inlinehint nounwind uwtable
define internal ptr @_(ptr noundef %0) #4 {
  %2 = alloca ptr, align 8
  %3 = alloca ptr, align 8
  store ptr %0, ptr %3, align 8, !tbaa !11
  %4 = load ptr, ptr %3, align 8, !tbaa !11
  %5 = load i8, ptr %4, align 1, !tbaa !23
  %6 = icmp ne i8 %5, 0
  br i1 %6, label %8, label %7

7:                                                ; preds = %1
  store ptr @.str.29, ptr %2, align 8
  br label %16

8:                                                ; preds = %1
  %9 = load i32, ptr @git_gettext_enabled, align 4, !tbaa !4
  %10 = icmp ne i32 %9, 0
  br i1 %10, label %13, label %11

11:                                               ; preds = %8
  %12 = load ptr, ptr %3, align 8, !tbaa !11
  store ptr %12, ptr %2, align 8
  br label %16

13:                                               ; preds = %8
  %14 = load ptr, ptr %3, align 8, !tbaa !11
  %15 = call ptr @dcgettext(ptr noundef null, ptr noundef %14, i32 noundef 5) #10
  store ptr %15, ptr %2, align 8
  br label %16

16:                                               ; preds = %13, %11, %7
  %17 = load ptr, ptr %2, align 8
  ret ptr %17
}

; Function Attrs: inlinehint nounwind uwtable
define internal zeroext i1 @skip_prefix(ptr noundef %0, ptr noundef %1, ptr noundef %2) #4 {
  %4 = alloca i1, align 1
  %5 = alloca ptr, align 8
  %6 = alloca ptr, align 8
  %7 = alloca ptr, align 8
  store ptr %0, ptr %5, align 8, !tbaa !11
  store ptr %1, ptr %6, align 8, !tbaa !11
  store ptr %2, ptr %7, align 8, !tbaa !21
  br label %8

8:                                                ; preds = %16, %3
  %9 = load ptr, ptr %6, align 8, !tbaa !11
  %10 = load i8, ptr %9, align 1, !tbaa !23
  %11 = icmp ne i8 %10, 0
  br i1 %11, label %15, label %12

12:                                               ; preds = %8
  %13 = load ptr, ptr %5, align 8, !tbaa !11
  %14 = load ptr, ptr %7, align 8, !tbaa !21
  store ptr %13, ptr %14, align 8, !tbaa !11
  store i1 true, ptr %4, align 1
  br label %27

15:                                               ; preds = %8
  br label %16

16:                                               ; preds = %15
  %17 = load ptr, ptr %5, align 8, !tbaa !11
  %18 = getelementptr inbounds nuw i8, ptr %17, i32 1
  store ptr %18, ptr %5, align 8, !tbaa !11
  %19 = load i8, ptr %17, align 1, !tbaa !23
  %20 = sext i8 %19 to i32
  %21 = load ptr, ptr %6, align 8, !tbaa !11
  %22 = getelementptr inbounds nuw i8, ptr %21, i32 1
  store ptr %22, ptr %6, align 8, !tbaa !11
  %23 = load i8, ptr %21, align 1, !tbaa !23
  %24 = sext i8 %23 to i32
  %25 = icmp eq i32 %20, %24
  br i1 %25, label %8, label %26, !llvm.loop !24

26:                                               ; preds = %16
  store i1 false, ptr %4, align 1
  br label %27

27:                                               ; preds = %26, %12
  %28 = load i1, ptr %4, align 1
  ret i1 %28
}

; Function Attrs: nounwind uwtable
define dso_local i32 @gently_parse_list_objects_filter(ptr noundef %0, ptr noundef %1, ptr noundef %2) #0 {
  %4 = alloca i32, align 4
  %5 = alloca ptr, align 8
  %6 = alloca ptr, align 8
  %7 = alloca ptr, align 8
  %8 = alloca ptr, align 8
  %9 = alloca i32, align 4
  %10 = alloca i32, align 4
  store ptr %0, ptr %5, align 8, !tbaa !8
  store ptr %1, ptr %6, align 8, !tbaa !11
  store ptr %2, ptr %7, align 8, !tbaa !13
  call void @llvm.lifetime.start.p0(i64 8, ptr %8) #10
  %11 = load ptr, ptr %6, align 8, !tbaa !11
  %12 = icmp ne ptr %11, null
  br i1 %12, label %14, label %13

13:                                               ; preds = %3
  store i32 0, ptr %4, align 4
  store i32 1, ptr %9, align 4
  br label %115

14:                                               ; preds = %3
  %15 = load ptr, ptr %5, align 8, !tbaa !8
  %16 = getelementptr inbounds nuw %struct.list_objects_filter_options, ptr %15, i32 0, i32 1
  %17 = load i32, ptr %16, align 8, !tbaa !15
  %18 = icmp ne i32 %17, 0
  br i1 %18, label %19, label %20

19:                                               ; preds = %14
  call void (ptr, i32, ptr, ...) @BUG_fl(ptr noundef @.str.6, i32 noundef 53, ptr noundef @.str.8) #9
  unreachable

20:                                               ; preds = %14
  %21 = load ptr, ptr %6, align 8, !tbaa !11
  %22 = call i32 @strcmp(ptr noundef %21, ptr noundef @.str) #11
  %23 = icmp ne i32 %22, 0
  br i1 %23, label %27, label %24

24:                                               ; preds = %20
  %25 = load ptr, ptr %5, align 8, !tbaa !8
  %26 = getelementptr inbounds nuw %struct.list_objects_filter_options, ptr %25, i32 0, i32 1
  store i32 1, ptr %26, align 8, !tbaa !15
  store i32 0, ptr %4, align 4
  store i32 1, ptr %9, align 4
  br label %115

27:                                               ; preds = %20
  %28 = load ptr, ptr %6, align 8, !tbaa !11
  %29 = call zeroext i1 @skip_prefix(ptr noundef %28, ptr noundef @.str.9, ptr noundef %8)
  br i1 %29, label %30, label %40

30:                                               ; preds = %27
  %31 = load ptr, ptr %8, align 8, !tbaa !11
  %32 = load ptr, ptr %5, align 8, !tbaa !8
  %33 = getelementptr inbounds nuw %struct.list_objects_filter_options, ptr %32, i32 0, i32 4
  %34 = call i32 @git_parse_ulong(ptr noundef %31, ptr noundef %33)
  %35 = icmp ne i32 %34, 0
  br i1 %35, label %36, label %39

36:                                               ; preds = %30
  %37 = load ptr, ptr %5, align 8, !tbaa !8
  %38 = getelementptr inbounds nuw %struct.list_objects_filter_options, ptr %37, i32 0, i32 1
  store i32 2, ptr %38, align 8, !tbaa !15
  store i32 0, ptr %4, align 4
  store i32 1, ptr %9, align 4
  br label %115

39:                                               ; preds = %30
  br label %109

40:                                               ; preds = %27
  %41 = load ptr, ptr %6, align 8, !tbaa !11
  %42 = call zeroext i1 @skip_prefix(ptr noundef %41, ptr noundef @.str.10, ptr noundef %8)
  br i1 %42, label %43, label %55

43:                                               ; preds = %40
  %44 = load ptr, ptr %8, align 8, !tbaa !11
  %45 = load ptr, ptr %5, align 8, !tbaa !8
  %46 = getelementptr inbounds nuw %struct.list_objects_filter_options, ptr %45, i32 0, i32 5
  %47 = call i32 @git_parse_ulong(ptr noundef %44, ptr noundef %46)
  %48 = icmp ne i32 %47, 0
  br i1 %48, label %52, label %49

49:                                               ; preds = %43
  %50 = load ptr, ptr %7, align 8, !tbaa !13
  %51 = call ptr @_(ptr noundef @.str.11)
  call void @strbuf_addstr(ptr noundef %50, ptr noundef %51)
  store i32 1, ptr %4, align 4
  store i32 1, ptr %9, align 4
  br label %115

52:                                               ; preds = %43
  %53 = load ptr, ptr %5, align 8, !tbaa !8
  %54 = getelementptr inbounds nuw %struct.list_objects_filter_options, ptr %53, i32 0, i32 1
  store i32 3, ptr %54, align 8, !tbaa !15
  store i32 0, ptr %4, align 4
  store i32 1, ptr %9, align 4
  br label %115

55:                                               ; preds = %40
  %56 = load ptr, ptr %6, align 8, !tbaa !11
  %57 = call zeroext i1 @skip_prefix(ptr noundef %56, ptr noundef @.str.12, ptr noundef %8)
  br i1 %57, label %58, label %65

58:                                               ; preds = %55
  %59 = load ptr, ptr %8, align 8, !tbaa !11
  %60 = call ptr @xstrdup(ptr noundef %59)
  %61 = load ptr, ptr %5, align 8, !tbaa !8
  %62 = getelementptr inbounds nuw %struct.list_objects_filter_options, ptr %61, i32 0, i32 3
  store ptr %60, ptr %62, align 8, !tbaa !19
  %63 = load ptr, ptr %5, align 8, !tbaa !8
  %64 = getelementptr inbounds nuw %struct.list_objects_filter_options, ptr %63, i32 0, i32 1
  store i32 4, ptr %64, align 8, !tbaa !15
  store i32 0, ptr %4, align 4
  store i32 1, ptr %9, align 4
  br label %115

65:                                               ; preds = %55
  %66 = load ptr, ptr %6, align 8, !tbaa !11
  %67 = call zeroext i1 @skip_prefix(ptr noundef %66, ptr noundef @.str.13, ptr noundef %8)
  br i1 %67, label %68, label %75

68:                                               ; preds = %65
  %69 = load ptr, ptr %7, align 8, !tbaa !13
  %70 = icmp ne ptr %69, null
  br i1 %70, label %71, label %74

71:                                               ; preds = %68
  %72 = load ptr, ptr %7, align 8, !tbaa !13
  %73 = call ptr @_(ptr noundef @.str.14)
  call void @strbuf_addstr(ptr noundef %72, ptr noundef %73)
  br label %74

74:                                               ; preds = %71, %68
  store i32 1, ptr %4, align 4
  store i32 1, ptr %9, align 4
  br label %115

75:                                               ; preds = %65
  %76 = load ptr, ptr %6, align 8, !tbaa !11
  %77 = call zeroext i1 @skip_prefix(ptr noundef %76, ptr noundef @.str.15, ptr noundef %8)
  br i1 %77, label %78, label %96

78:                                               ; preds = %75
  call void @llvm.lifetime.start.p0(i64 4, ptr %10) #10
  %79 = load ptr, ptr %8, align 8, !tbaa !11
  %80 = load ptr, ptr %8, align 8, !tbaa !11
  %81 = call i64 @strlen(ptr noundef %80) #11
  %82 = call i32 @type_from_string_gently(ptr noundef %79, i64 noundef %81, i32 noundef 1)
  store i32 %82, ptr %10, align 4, !tbaa !4
  %83 = load i32, ptr %10, align 4, !tbaa !4
  %84 = icmp slt i32 %83, 0
  br i1 %84, label %85, label %89

85:                                               ; preds = %78
  %86 = load ptr, ptr %7, align 8, !tbaa !13
  %87 = call ptr @_(ptr noundef @.str.16)
  %88 = load ptr, ptr %8, align 8, !tbaa !11
  call void (ptr, ptr, ...) @strbuf_addf(ptr noundef %86, ptr noundef %87, ptr noundef %88)
  store i32 1, ptr %4, align 4
  store i32 1, ptr %9, align 4
  br label %95

89:                                               ; preds = %78
  %90 = load i32, ptr %10, align 4, !tbaa !4
  %91 = load ptr, ptr %5, align 8, !tbaa !8
  %92 = getelementptr inbounds nuw %struct.list_objects_filter_options, ptr %91, i32 0, i32 6
  store i32 %90, ptr %92, align 8, !tbaa !20
  %93 = load ptr, ptr %5, align 8, !tbaa !8
  %94 = getelementptr inbounds nuw %struct.list_objects_filter_options, ptr %93, i32 0, i32 1
  store i32 5, ptr %94, align 8, !tbaa !15
  store i32 0, ptr %4, align 4
  store i32 1, ptr %9, align 4
  br label %95

95:                                               ; preds = %89, %85
  call void @llvm.lifetime.end.p0(i64 4, ptr %10) #10
  br label %115

96:                                               ; preds = %75
  %97 = load ptr, ptr %6, align 8, !tbaa !11
  %98 = call zeroext i1 @skip_prefix(ptr noundef %97, ptr noundef @.str.17, ptr noundef %8)
  br i1 %98, label %99, label %104

99:                                               ; preds = %96
  %100 = load ptr, ptr %5, align 8, !tbaa !8
  %101 = load ptr, ptr %8, align 8, !tbaa !11
  %102 = load ptr, ptr %7, align 8, !tbaa !13
  %103 = call i32 @parse_combine_filter(ptr noundef %100, ptr noundef %101, ptr noundef %102)
  store i32 %103, ptr %4, align 4
  store i32 1, ptr %9, align 4
  br label %115

104:                                              ; preds = %96
  br label %105

105:                                              ; preds = %104
  br label %106

106:                                              ; preds = %105
  br label %107

107:                                              ; preds = %106
  br label %108

108:                                              ; preds = %107
  br label %109

109:                                              ; preds = %108, %39
  br label %110

110:                                              ; preds = %109
  %111 = load ptr, ptr %7, align 8, !tbaa !13
  %112 = call ptr @_(ptr noundef @.str.18)
  %113 = load ptr, ptr %6, align 8, !tbaa !11
  call void (ptr, ptr, ...) @strbuf_addf(ptr noundef %111, ptr noundef %112, ptr noundef %113)
  %114 = load ptr, ptr %5, align 8, !tbaa !8
  call void @list_objects_filter_init(ptr noundef %114)
  store i32 1, ptr %4, align 4
  store i32 1, ptr %9, align 4
  br label %115

115:                                              ; preds = %110, %99, %95, %74, %58, %52, %49, %36, %24, %13
  call void @llvm.lifetime.end.p0(i64 8, ptr %8) #10
  %116 = load i32, ptr %4, align 4
  ret i32 %116
}