; Function Attrs: nounwind uwtable
define dso_local range(i32 0, 2) i32 @gently_parse_list_objects_filter(ptr noundef %0, ptr noundef %1, ptr noundef %2) local_unnamed_addr #0 {
  %.not = icmp eq ptr %1, null
  br i1 %.not, label %78, label %4

4:                                                ; preds = %3
  %5 = getelementptr inbounds nuw i8, ptr %0, i64 24
  %6 = load i32, ptr %5, align 8, !tbaa !4
  %.not32 = icmp eq i32 %6, 0
  br i1 %.not32, label %8, label %7

7:                                                ; preds = %4
  tail call void (ptr, i32, ptr, ...) @BUG_fl(ptr noundef nonnull @.str.6, i32 noundef 53, ptr noundef nonnull @.str.8) #14
  unreachable

8:                                                ; preds = %4
  %9 = tail call i32 @strcmp(ptr noundef nonnull dereferenceable(1) %1, ptr noundef nonnull dereferenceable(10) @.str) #15
  %.not33 = icmp eq i32 %9, 0
  br i1 %.not33, label %10, label %.preheader.preheader

.preheader.preheader:                             ; preds = %8
  %scevgep = getelementptr i8, ptr %1, i64 11
  br label %.preheader

10:                                               ; preds = %8
  store i32 1, ptr %5, align 8, !tbaa !4
  br label %78

.preheader:                                       ; preds = %.preheader.preheader, %11
  %.07.i = phi ptr [ %13, %11 ], [ %1, %.preheader.preheader ]
  %.06.i.idx = phi i64 [ %.06.i.add, %11 ], [ 0, %.preheader.preheader ]
  %exitcond = icmp eq i64 %.06.i.idx, 11
  br i1 %exitcond, label %16, label %11

11:                                               ; preds = %.preheader
  %.06.i.ptr = getelementptr inbounds nuw i8, ptr @.str.9, i64 %.06.i.idx
  %12 = load i8, ptr %.06.i.ptr, align 1, !tbaa !14
  %13 = getelementptr inbounds nuw i8, ptr %.07.i, i64 1
  %14 = load i8, ptr %.07.i, align 1, !tbaa !14
  %.06.i.add = add nuw nsw i64 %.06.i.idx, 1
  %15 = icmp eq i8 %14, %12
  br i1 %15, label %.preheader, label %skip_prefix.exit.preheader, !llvm.loop !15

skip_prefix.exit.preheader:                       ; preds = %11
  %scevgep93 = getelementptr i8, ptr %1, i64 5
  br label %skip_prefix.exit

16:                                               ; preds = %.preheader
  %17 = getelementptr inbounds nuw i8, ptr %0, i64 40
  %18 = tail call i32 @git_parse_ulong(ptr noundef nonnull %scevgep, ptr noundef nonnull %17) #16
  %.not36 = icmp eq i32 %18, 0
  br i1 %.not36, label %skip_prefix.exit62, label %19

19:                                               ; preds = %16
  store i32 2, ptr %5, align 8, !tbaa !4
  br label %78

skip_prefix.exit:                                 ; preds = %skip_prefix.exit.preheader, %20
  %.07.i37 = phi ptr [ %22, %20 ], [ %1, %skip_prefix.exit.preheader ]
  %.06.i38.idx = phi i64 [ %.06.i38.add, %20 ], [ 0, %skip_prefix.exit.preheader ]
  %exitcond94 = icmp eq i64 %.06.i38.idx, 5
  br i1 %exitcond94, label %25, label %20

20:                                               ; preds = %skip_prefix.exit
  %.06.i38.ptr = getelementptr inbounds nuw i8, ptr @.str.10, i64 %.06.i38.idx
  %21 = load i8, ptr %.06.i38.ptr, align 1, !tbaa !14
  %22 = getelementptr inbounds nuw i8, ptr %.07.i37, i64 1
  %23 = load i8, ptr %.07.i37, align 1, !tbaa !14
  %.06.i38.add = add nuw nsw i64 %.06.i38.idx, 1
  %24 = icmp eq i8 %23, %21
  br i1 %24, label %skip_prefix.exit, label %skip_prefix.exit40, !llvm.loop !15

25:                                               ; preds = %skip_prefix.exit
  %26 = getelementptr inbounds nuw i8, ptr %0, i64 48
  %27 = tail call i32 @git_parse_ulong(ptr noundef nonnull %scevgep93, ptr noundef nonnull %26) #16
  %.not35 = icmp eq i32 %27, 0
  br i1 %.not35, label %28, label %33

28:                                               ; preds = %25
  %29 = load i32, ptr @git_gettext_enabled, align 4, !tbaa !17
  %.not4.i = icmp eq i32 %29, 0
  br i1 %.not4.i, label %_.exit, label %30

30:                                               ; preds = %28
  %31 = tail call ptr @dcgettext(ptr noundef null, ptr noundef nonnull @.str.11, i32 noundef 5) #16
  br label %_.exit

_.exit:                                           ; preds = %28, %30
  %.0.i = phi ptr [ %31, %30 ], [ @.str.11, %28 ]
  %32 = tail call i64 @strlen(ptr noundef nonnull dereferenceable(1) %.0.i) #15
  tail call void @strbuf_add(ptr noundef %2, ptr noundef nonnull %.0.i, i64 noundef %32) #16
  br label %78

33:                                               ; preds = %25
  store i32 3, ptr %5, align 8, !tbaa !4
  br label %78

skip_prefix.exit40:                               ; preds = %20, %34
  %.07.i41 = phi ptr [ %36, %34 ], [ %1, %20 ]
  %.06.i42.idx = phi i64 [ %.06.i42.add, %34 ], [ 0, %20 ]
  %exitcond96 = icmp eq i64 %.06.i42.idx, 11
  br i1 %exitcond96, label %39, label %34

34:                                               ; preds = %skip_prefix.exit40
  %.06.i42.ptr = getelementptr inbounds nuw i8, ptr @.str.12, i64 %.06.i42.idx
  %35 = load i8, ptr %.06.i42.ptr, align 1, !tbaa !14
  %36 = getelementptr inbounds nuw i8, ptr %.07.i41, i64 1
  %37 = load i8, ptr %.07.i41, align 1, !tbaa !14
  %.06.i42.add = add nuw nsw i64 %.06.i42.idx, 1
  %38 = icmp eq i8 %37, %35
  br i1 %38, label %skip_prefix.exit40, label %skip_prefix.exit44, !llvm.loop !15

39:                                               ; preds = %skip_prefix.exit40
  %40 = tail call ptr @xstrdup(ptr noundef nonnull %scevgep) #16
  %41 = getelementptr inbounds nuw i8, ptr %0, i64 32
  store ptr %40, ptr %41, align 8, !tbaa !18
  store i32 4, ptr %5, align 8, !tbaa !4
  br label %78

skip_prefix.exit44:                               ; preds = %34, %42
  %.07.i45 = phi ptr [ %44, %42 ], [ %1, %34 ]
  %.06.i46.idx = phi i64 [ %.06.i46.add, %42 ], [ 0, %34 ]
  %exitcond97 = icmp eq i64 %.06.i46.idx, 12
  br i1 %exitcond97, label %47, label %42

42:                                               ; preds = %skip_prefix.exit44
  %.06.i46.ptr = getelementptr inbounds nuw i8, ptr @.str.13, i64 %.06.i46.idx
  %43 = load i8, ptr %.06.i46.ptr, align 1, !tbaa !14
  %44 = getelementptr inbounds nuw i8, ptr %.07.i45, i64 1
  %45 = load i8, ptr %.07.i45, align 1, !tbaa !14
  %.06.i46.add = add nuw nsw i64 %.06.i46.idx, 1
  %46 = icmp eq i8 %45, %43
  br i1 %46, label %skip_prefix.exit44, label %skip_prefix.exit48.preheader, !llvm.loop !15

skip_prefix.exit48.preheader:                     ; preds = %42
  %scevgep98 = getelementptr i8, ptr %1, i64 12
  br label %skip_prefix.exit48

47:                                               ; preds = %skip_prefix.exit44
  %.not34 = icmp eq ptr %2, null
  br i1 %.not34, label %78, label %48

48:                                               ; preds = %47
  %49 = load i32, ptr @git_gettext_enabled, align 4, !tbaa !17
  %.not4.i49 = icmp eq i32 %49, 0
  br i1 %.not4.i49, label %_.exit51, label %50

50:                                               ; preds = %48
  %51 = tail call ptr @dcgettext(ptr noundef null, ptr noundef nonnull @.str.14, i32 noundef 5) #16
  br label %_.exit51

_.exit51:                                         ; preds = %48, %50
  %.0.i50 = phi ptr [ %51, %50 ], [ @.str.14, %48 ]
  %52 = tail call i64 @strlen(ptr noundef nonnull dereferenceable(1) %.0.i50) #15
  tail call void @strbuf_add(ptr noundef nonnull %2, ptr noundef nonnull %.0.i50, i64 noundef %52) #16
  br label %78

skip_prefix.exit48:                               ; preds = %skip_prefix.exit48.preheader, %53
  %.07.i52 = phi ptr [ %55, %53 ], [ %1, %skip_prefix.exit48.preheader ]
  %.06.i53.idx = phi i64 [ %.06.i53.add, %53 ], [ 0, %skip_prefix.exit48.preheader ]
  %exitcond99 = icmp eq i64 %.06.i53.idx, 12
  br i1 %exitcond99, label %58, label %53

53:                                               ; preds = %skip_prefix.exit48
  %.06.i53.ptr = getelementptr inbounds nuw i8, ptr @.str.15, i64 %.06.i53.idx
  %54 = load i8, ptr %.06.i53.ptr, align 1, !tbaa !14
  %55 = getelementptr inbounds nuw i8, ptr %.07.i52, i64 1
  %56 = load i8, ptr %.07.i52, align 1, !tbaa !14
  %.06.i53.add = add nuw nsw i64 %.06.i53.idx, 1
  %57 = icmp eq i8 %56, %54
  br i1 %57, label %skip_prefix.exit48, label %skip_prefix.exit55.preheader, !llvm.loop !15

skip_prefix.exit55.preheader:                     ; preds = %53
  %scevgep100 = getelementptr i8, ptr %1, i64 8
  br label %skip_prefix.exit55

58:                                               ; preds = %skip_prefix.exit48
  %59 = tail call i64 @strlen(ptr noundef nonnull dereferenceable(1) %scevgep98) #15
  %60 = tail call i32 @type_from_string_gently(ptr noundef nonnull %scevgep98, i64 noundef %59, i32 noundef 1) #16
  %61 = icmp slt i32 %60, 0
  br i1 %61, label %62, label %66

62:                                               ; preds = %58
  %63 = load i32, ptr @git_gettext_enabled, align 4, !tbaa !17
  %.not4.i56 = icmp eq i32 %63, 0
  br i1 %.not4.i56, label %_.exit58, label %64

64:                                               ; preds = %62
  %65 = tail call ptr @dcgettext(ptr noundef null, ptr noundef nonnull @.str.16, i32 noundef 5) #16
  br label %_.exit58

_.exit58:                                         ; preds = %62, %64
  %.0.i57 = phi ptr [ %65, %64 ], [ @.str.16, %62 ]
  tail call void (ptr, ptr, ...) @strbuf_addf(ptr noundef %2, ptr noundef %.0.i57, ptr noundef nonnull %scevgep98) #16
  br label %78

66:                                               ; preds = %58
  %67 = getelementptr inbounds nuw i8, ptr %0, i64 56
  store i32 %60, ptr %67, align 8, !tbaa !19
  store i32 5, ptr %5, align 8, !tbaa !4
  br label %78

skip_prefix.exit55:                               ; preds = %skip_prefix.exit55.preheader, %68
  %.07.i59 = phi ptr [ %70, %68 ], [ %1, %skip_prefix.exit55.preheader ]
  %.06.i60.idx = phi i64 [ %.06.i60.add, %68 ], [ 0, %skip_prefix.exit55.preheader ]
  %exitcond101 = icmp eq i64 %.06.i60.idx, 8
  br i1 %exitcond101, label %73, label %68

68:                                               ; preds = %skip_prefix.exit55
  %.06.i60.ptr = getelementptr inbounds nuw i8, ptr @.str.17, i64 %.06.i60.idx
  %69 = load i8, ptr %.06.i60.ptr, align 1, !tbaa !14
  %70 = getelementptr inbounds nuw i8, ptr %.07.i59, i64 1
  %71 = load i8, ptr %.07.i59, align 1, !tbaa !14
  %.06.i60.add = add nuw nsw i64 %.06.i60.idx, 1
  %72 = icmp eq i8 %71, %69
  br i1 %72, label %skip_prefix.exit55, label %skip_prefix.exit62, !llvm.loop !15

73:                                               ; preds = %skip_prefix.exit55
  %74 = tail call fastcc i32 @parse_combine_filter(ptr noundef %0, ptr noundef nonnull %scevgep100, ptr noundef %2)
  br label %78

skip_prefix.exit62:                               ; preds = %68, %16
  %75 = load i32, ptr @git_gettext_enabled, align 4, !tbaa !17
  %.not4.i63 = icmp eq i32 %75, 0
  br i1 %.not4.i63, label %_.exit65, label %76

76:                                               ; preds = %skip_prefix.exit62
  %77 = tail call ptr @dcgettext(ptr noundef null, ptr noundef nonnull @.str.18, i32 noundef 5) #16
  br label %_.exit65

_.exit65:                                         ; preds = %skip_prefix.exit62, %76
  %.0.i64 = phi ptr [ %77, %76 ], [ @.str.18, %skip_prefix.exit62 ]
  tail call void (ptr, ptr, ...) @strbuf_addf(ptr noundef %2, ptr noundef %.0.i64, ptr noundef nonnull %1) #16
  tail call void @llvm.memcpy.p0.p0.i64(ptr noundef nonnull align 8 dereferenceable(88) %0, ptr noundef nonnull align 8 dereferenceable(88) @__const.list_objects_filter_init.blank, i64 88, i1 false)
  br label %78

78:                                               ; preds = %_.exit58, %66, %47, %_.exit51, %3, %_.exit65, %73, %39, %33, %_.exit, %19, %10
  %.0 = phi i32 [ 0, %19 ], [ 1, %_.exit65 ], [ 0, %33 ], [ 1, %_.exit ], [ 0, %39 ], [ %74, %73 ], [ 0, %10 ], [ 0, %3 ], [ 1, %_.exit51 ], [ 1, %47 ], [ 1, %_.exit58 ], [ 0, %66 ]
  ret i32 %.0
}